target datalayout = "e-m:e-p270:32:32-p271:32:32-p272:64:64-i64:64-i128:128-f80:128-n8:16:32:64-S128"
target triple = "x86_64-pc-linux-gnu"

%class.ErrorHandler = type <{ i32, i32, i8, i8, i8, i8, i8, i8, [2 x i8] }>

; Function Attrs: mustprogress nounwind uwtable
define void @_ZN12ErrorHandler17SetSignalHandlersEb(ptr noundef nonnull align 4 dereferenceable(14) %0, i1 noundef zeroext %1) #1 align 2 {
  %3 = alloca ptr, align 8
  %4 = alloca i8, align 1
  store ptr %0, ptr %3, align 8
  %5 = zext i1 %1 to i8
  store i8 %5, ptr %4, align 1
  %6 = load ptr, ptr %3, align 8
  %7 = load i8, ptr %4, align 1
  %8 = trunc i8 %7 to i1
  %9 = getelementptr inbounds %class.ErrorHandler, ptr %6, i32 0, i32 2
  %10 = zext i1 %8 to i8
  store i8 %10, ptr %9, align 4
  %11 = load i8, ptr %4, align 1
  %12 = trunc i8 %11 to i1
  %13 = select i1 %12, ptr @_Z13ProcessSignali, ptr inttoptr (i64 1 to ptr)
  %14 = call ptr @signal(i32 noundef 2, ptr noundef %13) #8
  %15 = load i8, ptr %4, align 1
  %16 = trunc i8 %15 to i1
  %17 = select i1 %16, ptr @_Z13ProcessSignali, ptr inttoptr (i64 1 to ptr)
  %18 = call ptr @signal(i32 noundef 15, ptr noundef %17) #8
  ret void
}