; Function Attrs: mustprogress nounwind uwtable
define void @_ZN12ErrorHandler17SetSignalHandlersEb(ptr nocapture noundef nonnull writeonly align 4 dereferenceable(14) %0, i1 noundef zeroext %1) local_unnamed_addr #8 align 2 {
  %3 = zext i1 %1 to i8
  %4 = getelementptr inbounds i8, ptr %0, i64 8
  store i8 %3, ptr %4, align 4
  %5 = select i1 %1, ptr @_Z13ProcessSignali, ptr inttoptr (i64 1 to ptr)
  %6 = tail call ptr @signal(i32 noundef 2, ptr noundef nonnull %5) #15
  %7 = tail call ptr @signal(i32 noundef 15, ptr noundef nonnull %5) #15
  ret void
}